; Function Attrs: mustprogress nofree nounwind memory(read, argmem: readwrite, inaccessiblemem: none) uwtable
define hidden noundef zeroext i1 @_ZNK6Assimp11AMFImporter22Find_ConvertedMaterialERKNSt7__cxx1112basic_stringIcSt11char_traitsIcESaIcEEEPPKNS0_12SPP_MaterialE(ptr noundef nonnull readonly align 8 captures(address) dereferenceable(224) %0, ptr noundef nonnull readonly align 8 captures(none) dereferenceable(32) %1, ptr noundef writeonly captures(address_is_null) %2) local_unnamed_addr #6 align 2 personality ptr @__gxx_personality_v0 {
  %4 = getelementptr inbounds nuw i8, ptr %0, i64 176
  %.sroa.013.020 = load ptr, ptr %4, align 8
  %.not1721.not = icmp eq ptr %.sroa.013.020, %4
  br i1 %.not1721.not, label %.loopexit, label %.lr.ph

.lr.ph:                                           ; preds = %3
  %5 = getelementptr inbounds nuw i8, ptr %1, i64 8
  %6 = load i64, ptr %5, align 8
  %7 = load ptr, ptr %1, align 8
  %8 = icmp eq i64 %6, 0
  br label %9

9:                                                ; preds = %.lr.ph, %.critedge
  %.sroa.013.022 = phi ptr [ %.sroa.013.020, %.lr.ph ], [ %.sroa.013.0, %.critedge ]
  %10 = getelementptr inbounds nuw i8, ptr %.sroa.013.022, i64 16
  %11 = getelementptr inbounds nuw i8, ptr %.sroa.013.022, i64 24
  %12 = load i64, ptr %11, align 8
  %13 = icmp eq i64 %12, %6
  br i1 %13, label %14, label %.critedge

14:                                               ; preds = %9
  br i1 %8, label %_ZSteqIcEN9__gnu_cxx11__enable_ifIXsr9__is_charIT_EE7__valueEbE6__typeERKNSt7__cxx1112basic_stringIS2_St11char_traitsIS2_ESaIS2_EEESC_.exit.thread, label %_ZSteqIcEN9__gnu_cxx11__enable_ifIXsr9__is_charIT_EE7__valueEbE6__typeERKNSt7__cxx1112basic_stringIS2_St11char_traitsIS2_ESaIS2_EEESC_.exit

_ZSteqIcEN9__gnu_cxx11__enable_ifIXsr9__is_charIT_EE7__valueEbE6__typeERKNSt7__cxx1112basic_stringIS2_St11char_traitsIS2_ESaIS2_EEESC_.exit: ; preds = %14
  %15 = load ptr, ptr %10, align 8
  %bcmp.i = tail call i32 @bcmp(ptr %15, ptr %7, i64 %6)
  %16 = icmp eq i32 %bcmp.i, 0
  br i1 %16, label %_ZSteqIcEN9__gnu_cxx11__enable_ifIXsr9__is_charIT_EE7__valueEbE6__typeERKNSt7__cxx1112basic_stringIS2_St11char_traitsIS2_ESaIS2_EEESC_.exit.thread, label %.critedge

_ZSteqIcEN9__gnu_cxx11__enable_ifIXsr9__is_charIT_EE7__valueEbE6__typeERKNSt7__cxx1112basic_stringIS2_St11char_traitsIS2_ESaIS2_EEESC_.exit.thread: ; preds = %14, %_ZSteqIcEN9__gnu_cxx11__enable_ifIXsr9__is_charIT_EE7__valueEbE6__typeERKNSt7__cxx1112basic_stringIS2_St11char_traitsIS2_ESaIS2_EEESC_.exit
  %.not = icmp eq ptr %2, null
  br i1 %.not, label %.loopexit, label %17

17:                                               ; preds = %_ZSteqIcEN9__gnu_cxx11__enable_ifIXsr9__is_charIT_EE7__valueEbE6__typeERKNSt7__cxx1112basic_stringIS2_St11char_traitsIS2_ESaIS2_EEESC_.exit.thread
  store ptr %10, ptr %2, align 8
  br label %.loopexit

.critedge:                                        ; preds = %9, %_ZSteqIcEN9__gnu_cxx11__enable_ifIXsr9__is_charIT_EE7__valueEbE6__typeERKNSt7__cxx1112basic_stringIS2_St11char_traitsIS2_ESaIS2_EEESC_.exit
  %.sroa.013.0 = load ptr, ptr %.sroa.013.022, align 8
  %.not17.not = icmp eq ptr %.sroa.013.0, %4
  br i1 %.not17.not, label %.loopexit, label %9

.loopexit:                                        ; preds = %.critedge, %3, %17, %_ZSteqIcEN9__gnu_cxx11__enable_ifIXsr9__is_charIT_EE7__valueEbE6__typeERKNSt7__cxx1112basic_stringIS2_St11char_traitsIS2_ESaIS2_EEESC_.exit.thread
  %.not1719 = phi i1 [ true, %17 ], [ true, %_ZSteqIcEN9__gnu_cxx11__enable_ifIXsr9__is_charIT_EE7__valueEbE6__typeERKNSt7__cxx1112basic_stringIS2_St11char_traitsIS2_ESaIS2_EEESC_.exit.thread ], [ false, %3 ], [ false, %.critedge ]
  ret i1 %.not1719
}